target datalayout = "e-m:e-p270:32:32-p271:32:32-p272:64:64-i64:64-i128:128-f80:128-n8:16:32:64-S128"
target triple = "x86_64-pc-linux-gnu"

%struct.Type_ = type { i32, ptr, ptr, ptr, %union.anon.86, ptr, ptr, %union.anon.88 }
%union.anon.86 = type { ptr }
%union.anon.88 = type { %struct.TypeFunction }
%struct.TypeFunction = type { ptr, ptr, ptr }

@type_voidptr = external global ptr, align 8
@type_char = external global ptr, align 8

; Function Attrs: nounwind uwtable
define dso_local ptr @llvm_get_pointee_type(ptr noundef %0, ptr noundef %1) #0 {
  %3 = alloca ptr, align 8
  %4 = alloca ptr, align 8
  %5 = alloca ptr, align 8
  store ptr %0, ptr %4, align 8
  store ptr %1, ptr %5, align 8
  %6 = load ptr, ptr %5, align 8
  %7 = getelementptr inbounds %struct.Type_, ptr %6, i32 0, i32 1
  %8 = load ptr, ptr %7, align 8
  store ptr %8, ptr %5, align 8
  %9 = load ptr, ptr %5, align 8
  %10 = load ptr, ptr @type_voidptr, align 8
  %11 = icmp eq ptr %9, %10
  br i1 %11, label %12, label %16

12:                                               ; preds = %2
  %13 = load ptr, ptr %4, align 8
  %14 = load ptr, ptr @type_char, align 8
  %15 = call ptr @llvm_get_type(ptr noundef %13, ptr noundef %14)
  store ptr %15, ptr %3, align 8
  br label %22

16:                                               ; preds = %2
  %17 = load ptr, ptr %4, align 8
  %18 = load ptr, ptr %5, align 8
  %19 = getelementptr inbounds %struct.Type_, ptr %18, i32 0, i32 7
  %20 = load ptr, ptr %19, align 8
  %21 = call ptr @llvm_get_type(ptr noundef %17, ptr noundef %20)
  store ptr %21, ptr %3, align 8
  br label %22

22:                                               ; preds = %16, %12
  %23 = load ptr, ptr %3, align 8
  ret ptr %23
}