; Function Attrs: nounwind uwtable
define dso_local ptr @llvm_get_pointee_type(ptr noundef %0, ptr nocapture noundef readonly %1) local_unnamed_addr #0 {
  %3 = getelementptr inbounds i8, ptr %1, i64 8
  %4 = load ptr, ptr %3, align 8
  %5 = load ptr, ptr @type_voidptr, align 8
  %6 = icmp eq ptr %4, %5
  %7 = getelementptr inbounds i8, ptr %4, i64 56
  %.sink7 = select i1 %6, ptr @type_char, ptr %7
  %8 = load ptr, ptr %.sink7, align 8
  %9 = tail call ptr @llvm_get_type(ptr noundef %0, ptr noundef %8)
  ret ptr %9
}